; Function Attrs: null_pointer_is_valid sspstrong uwtable
define internal fastcc void @dissect_giop_cancel_request(ptr noundef %0, ptr noundef readonly captures(none) %1, ptr noundef %2, i1 noundef zeroext %3) unnamed_addr #0 {
  %5 = load i32, ptr @ett_giop_cancel_request, align 4
  %6 = tail call ptr @proto_tree_add_subtree(ptr noundef %2, ptr noundef %0, i32 noundef 0, i32 noundef -1, i32 noundef %5, ptr noundef null, ptr noundef nonnull @.str.278)
  br i1 %3, label %7, label %9

7:                                                ; preds = %4
  %8 = tail call i32 @tvb_get_ntohl(ptr noundef %0, i32 noundef 0)
  br label %get_CDR_ulong.exit

9:                                                ; preds = %4
  %10 = tail call i32 @tvb_get_letohl(ptr noundef %0, i32 noundef 0)
  br label %get_CDR_ulong.exit

get_CDR_ulong.exit:                               ; preds = %7, %9
  %11 = phi i32 [ %8, %7 ], [ %10, %9 ]
  %12 = getelementptr inbounds nuw i8, ptr %1, i64 8
  %13 = load ptr, ptr %12, align 8
  tail call void (ptr, i32, ptr, ...) @col_append_fstr(ptr noundef %13, i32 noundef 25, ptr noundef nonnull @.str.261, i32 noundef %11)
  %14 = load i32, ptr @hf_giop_req_id, align 4
  %15 = tail call ptr @proto_tree_add_uint(ptr noundef %6, i32 noundef %14, ptr noundef %0, i32 noundef 0, i32 noundef 4, i32 noundef %11)
  ret void
}